target datalayout = "e-m:e-p270:32:32-p271:32:32-p272:64:64-i64:64-i128:128-f80:128-n8:16:32:64-S128"
target triple = "x86_64-pc-linux-gnu"

%struct.jpeg_compress_struct = type { ptr, ptr, ptr, ptr, i32, i32, ptr, i32, i32, i32, i32, double, i32, i32, i32, ptr, [4 x ptr], [4 x ptr], [4 x ptr], [16 x i8], [16 x i8], [16 x i8], i32, ptr, i32, i32, i32, i32, i32, i32, i32, i32, i32, i8, i8, i8, i16, i16, i32, i32, i32, i32, i32, i32, i32, [4 x ptr], i32, i32, i32, [10 x i32], i32, i32, i32, i32, ptr, ptr, ptr, ptr, ptr, ptr, ptr, ptr, ptr, ptr, i32 }
%struct.jpeg_error_mgr = type { ptr, ptr, ptr, ptr, ptr, i32, %union.anon, i32, i64, ptr, i32, ptr, i32, i32 }
%union.anon = type { [8 x i32], [48 x i8] }
%struct.jpeg_comp_master = type { ptr, ptr, ptr, i32, i32, i32 }

; Function Attrs: nounwind uwtable
define void @jpeg_enable_lossless(ptr noundef %0, i32 noundef %1, i32 noundef %2) #0 {
  %4 = alloca ptr, align 8
  %5 = alloca i32, align 4
  %6 = alloca i32, align 4
  store ptr %0, ptr %4, align 8, !tbaa !3
  store i32 %1, ptr %5, align 4, !tbaa !8
  store i32 %2, ptr %6, align 4, !tbaa !8
  %7 = load ptr, ptr %4, align 8, !tbaa !3
  %8 = getelementptr inbounds nuw %struct.jpeg_compress_struct, ptr %7, i32 0, i32 5
  %9 = load i32, ptr %8, align 4, !tbaa !12
  %10 = icmp ne i32 %9, 100
  br i1 %10, label %11, label %30

11:                                               ; preds = %3
  %12 = load ptr, ptr %4, align 8, !tbaa !3
  %13 = getelementptr inbounds nuw %struct.jpeg_compress_struct, ptr %12, i32 0, i32 0
  %14 = load ptr, ptr %13, align 8, !tbaa !29
  %15 = getelementptr inbounds nuw %struct.jpeg_error_mgr, ptr %14, i32 0, i32 5
  store i32 20, ptr %15, align 8, !tbaa !30
  %16 = load ptr, ptr %4, align 8, !tbaa !3
  %17 = getelementptr inbounds nuw %struct.jpeg_compress_struct, ptr %16, i32 0, i32 5
  %18 = load i32, ptr %17, align 4, !tbaa !12
  %19 = load ptr, ptr %4, align 8, !tbaa !3
  %20 = getelementptr inbounds nuw %struct.jpeg_compress_struct, ptr %19, i32 0, i32 0
  %21 = load ptr, ptr %20, align 8, !tbaa !29
  %22 = getelementptr inbounds nuw %struct.jpeg_error_mgr, ptr %21, i32 0, i32 6
  %23 = getelementptr inbounds [8 x i32], ptr %22, i64 0, i64 0
  store i32 %18, ptr %23, align 4, !tbaa !34
  %24 = load ptr, ptr %4, align 8, !tbaa !3
  %25 = getelementptr inbounds nuw %struct.jpeg_compress_struct, ptr %24, i32 0, i32 0
  %26 = load ptr, ptr %25, align 8, !tbaa !29
  %27 = getelementptr inbounds nuw %struct.jpeg_error_mgr, ptr %26, i32 0, i32 0
  %28 = load ptr, ptr %27, align 8, !tbaa !35
  %29 = load ptr, ptr %4, align 8, !tbaa !3
  call void %28(ptr noundef %29)
  br label %30

30:                                               ; preds = %11, %3
  %31 = load ptr, ptr %4, align 8, !tbaa !3
  %32 = getelementptr inbounds nuw %struct.jpeg_compress_struct, ptr %31, i32 0, i32 54
  %33 = load ptr, ptr %32, align 8, !tbaa !50
  %34 = getelementptr inbounds nuw %struct.jpeg_comp_master, ptr %33, i32 0, i32 5
  store i32 1, ptr %34, align 8, !tbaa !51
  %35 = load i32, ptr %5, align 4, !tbaa !8
  %36 = load ptr, ptr %4, align 8, !tbaa !3
  %37 = getelementptr inbounds nuw %struct.jpeg_compress_struct, ptr %36, i32 0, i32 50
  store i32 %35, ptr %37, align 4, !tbaa !95
  %38 = load ptr, ptr %4, align 8, !tbaa !3
  %39 = getelementptr inbounds nuw %struct.jpeg_compress_struct, ptr %38, i32 0, i32 51
  store i32 0, ptr %39, align 8, !tbaa !96
  %40 = load ptr, ptr %4, align 8, !tbaa !3
  %41 = getelementptr inbounds nuw %struct.jpeg_compress_struct, ptr %40, i32 0, i32 52
  store i32 0, ptr %41, align 4, !tbaa !97
  %42 = load i32, ptr %6, align 4, !tbaa !8
  %43 = load ptr, ptr %4, align 8, !tbaa !3
  %44 = getelementptr inbounds nuw %struct.jpeg_compress_struct, ptr %43, i32 0, i32 53
  store i32 %42, ptr %44, align 8, !tbaa !98
  %45 = load ptr, ptr %4, align 8, !tbaa !3
  %46 = getelementptr inbounds nuw %struct.jpeg_compress_struct, ptr %45, i32 0, i32 50
  %47 = load i32, ptr %46, align 4, !tbaa !95
  %48 = icmp slt i32 %47, 1
  br i1 %48, label %67, label %49

49:                                               ; preds = %30
  %50 = load ptr, ptr %4, align 8, !tbaa !3
  %51 = getelementptr inbounds nuw %struct.jpeg_compress_struct, ptr %50, i32 0, i32 50
  %52 = load i32, ptr %51, align 4, !tbaa !95
  %53 = icmp sgt i32 %52, 7
  br i1 %53, label %67, label %54

54:                                               ; preds = %49
  %55 = load ptr, ptr %4, align 8, !tbaa !3
  %56 = getelementptr inbounds nuw %struct.jpeg_compress_struct, ptr %55, i32 0, i32 53
  %57 = load i32, ptr %56, align 8, !tbaa !98
  %58 = icmp slt i32 %57, 0
  br i1 %58, label %67, label %59

59:                                               ; preds = %54
  %60 = load ptr, ptr %4, align 8, !tbaa !3
  %61 = getelementptr inbounds nuw %struct.jpeg_compress_struct, ptr %60, i32 0, i32 53
  %62 = load i32, ptr %61, align 8, !tbaa !98
  %63 = load ptr, ptr %4, align 8, !tbaa !3
  %64 = getelementptr inbounds nuw %struct.jpeg_compress_struct, ptr %63, i32 0, i32 12
  %65 = load i32, ptr %64, align 8, !tbaa !56
  %66 = icmp sge i32 %62, %65
  br i1 %66, label %67, label %110

67:                                               ; preds = %59, %54, %49, %30
  %68 = load ptr, ptr %4, align 8, !tbaa !3
  %69 = getelementptr inbounds nuw %struct.jpeg_compress_struct, ptr %68, i32 0, i32 0
  %70 = load ptr, ptr %69, align 8, !tbaa !29
  %71 = getelementptr inbounds nuw %struct.jpeg_error_mgr, ptr %70, i32 0, i32 5
  store i32 16, ptr %71, align 8, !tbaa !30
  %72 = load ptr, ptr %4, align 8, !tbaa !3
  %73 = getelementptr inbounds nuw %struct.jpeg_compress_struct, ptr %72, i32 0, i32 50
  %74 = load i32, ptr %73, align 4, !tbaa !95
  %75 = load ptr, ptr %4, align 8, !tbaa !3
  %76 = getelementptr inbounds nuw %struct.jpeg_compress_struct, ptr %75, i32 0, i32 0
  %77 = load ptr, ptr %76, align 8, !tbaa !29
  %78 = getelementptr inbounds nuw %struct.jpeg_error_mgr, ptr %77, i32 0, i32 6
  %79 = getelementptr inbounds [8 x i32], ptr %78, i64 0, i64 0
  store i32 %74, ptr %79, align 4, !tbaa !34
  %80 = load ptr, ptr %4, align 8, !tbaa !3
  %81 = getelementptr inbounds nuw %struct.jpeg_compress_struct, ptr %80, i32 0, i32 51
  %82 = load i32, ptr %81, align 8, !tbaa !96
  %83 = load ptr, ptr %4, align 8, !tbaa !3
  %84 = getelementptr inbounds nuw %struct.jpeg_compress_struct, ptr %83, i32 0, i32 0
  %85 = load ptr, ptr %84, align 8, !tbaa !29
  %86 = getelementptr inbounds nuw %struct.jpeg_error_mgr, ptr %85, i32 0, i32 6
  %87 = getelementptr inbounds [8 x i32], ptr %86, i64 0, i64 1
  store i32 %82, ptr %87, align 4, !tbaa !34
  %88 = load ptr, ptr %4, align 8, !tbaa !3
  %89 = getelementptr inbounds nuw %struct.jpeg_compress_struct, ptr %88, i32 0, i32 52
  %90 = load i32, ptr %89, align 4, !tbaa !97
  %91 = load ptr, ptr %4, align 8, !tbaa !3
  %92 = getelementptr inbounds nuw %struct.jpeg_compress_struct, ptr %91, i32 0, i32 0
  %93 = load ptr, ptr %92, align 8, !tbaa !29
  %94 = getelementptr inbounds nuw %struct.jpeg_error_mgr, ptr %93, i32 0, i32 6
  %95 = getelementptr inbounds [8 x i32], ptr %94, i64 0, i64 2
  store i32 %90, ptr %95, align 4, !tbaa !34
  %96 = load ptr, ptr %4, align 8, !tbaa !3
  %97 = getelementptr inbounds nuw %struct.jpeg_compress_struct, ptr %96, i32 0, i32 53
  %98 = load i32, ptr %97, align 8, !tbaa !98
  %99 = load ptr, ptr %4, align 8, !tbaa !3
  %100 = getelementptr inbounds nuw %struct.jpeg_compress_struct, ptr %99, i32 0, i32 0
  %101 = load ptr, ptr %100, align 8, !tbaa !29
  %102 = getelementptr inbounds nuw %struct.jpeg_error_mgr, ptr %101, i32 0, i32 6
  %103 = getelementptr inbounds [8 x i32], ptr %102, i64 0, i64 3
  store i32 %98, ptr %103, align 4, !tbaa !34
  %104 = load ptr, ptr %4, align 8, !tbaa !3
  %105 = getelementptr inbounds nuw %struct.jpeg_compress_struct, ptr %104, i32 0, i32 0
  %106 = load ptr, ptr %105, align 8, !tbaa !29
  %107 = getelementptr inbounds nuw %struct.jpeg_error_mgr, ptr %106, i32 0, i32 0
  %108 = load ptr, ptr %107, align 8, !tbaa !35
  %109 = load ptr, ptr %4, align 8, !tbaa !3
  call void %108(ptr noundef %109)
  br label %110

110:                                              ; preds = %67, %59
  ret void
}