; Function Attrs: nounwind uwtable
define void @jpeg_enable_lossless(ptr noundef %0, i32 noundef %1, i32 noundef %2) local_unnamed_addr #0 {
  %4 = getelementptr inbounds nuw i8, ptr %0, i64 36
  %5 = load i32, ptr %4, align 4, !tbaa !3
  %.not = icmp eq i32 %5, 100
  br i1 %.not, label %12, label %6

6:                                                ; preds = %3
  %7 = load ptr, ptr %0, align 8, !tbaa !24
  %8 = getelementptr inbounds nuw i8, ptr %7, i64 40
  store i32 20, ptr %8, align 8, !tbaa !25
  %9 = getelementptr inbounds nuw i8, ptr %7, i64 44
  store i32 %5, ptr %9, align 4, !tbaa !29
  %10 = load ptr, ptr %0, align 8, !tbaa !24
  %11 = load ptr, ptr %10, align 8, !tbaa !30
  tail call void %11(ptr noundef nonnull %0) #6
  br label %12

12:                                               ; preds = %6, %3
  %13 = getelementptr inbounds nuw i8, ptr %0, i64 432
  %14 = load ptr, ptr %13, align 8, !tbaa !48
  %15 = getelementptr inbounds nuw i8, ptr %14, i64 32
  store i32 1, ptr %15, align 8, !tbaa !49
  %16 = getelementptr inbounds nuw i8, ptr %0, i64 412
  store i32 %1, ptr %16, align 4, !tbaa !83
  %17 = getelementptr inbounds nuw i8, ptr %0, i64 416
  store i32 0, ptr %17, align 8, !tbaa !84
  %18 = getelementptr inbounds nuw i8, ptr %0, i64 420
  store i32 0, ptr %18, align 4, !tbaa !85
  %19 = getelementptr inbounds nuw i8, ptr %0, i64 424
  store i32 %2, ptr %19, align 8, !tbaa !86
  %20 = add i32 %1, -8
  %or.cond = icmp ult i32 %20, -7
  %21 = icmp slt i32 %2, 0
  %or.cond30 = or i1 %or.cond, %21
  br i1 %or.cond30, label %25, label %22

22:                                               ; preds = %12
  %23 = getelementptr inbounds nuw i8, ptr %0, i64 72
  %24 = load i32, ptr %23, align 8, !tbaa !53
  %.not29 = icmp slt i32 %2, %24
  br i1 %.not29, label %40, label %25

25:                                               ; preds = %22, %12
  %26 = load ptr, ptr %0, align 8, !tbaa !24
  %27 = getelementptr inbounds nuw i8, ptr %26, i64 40
  store i32 16, ptr %27, align 8, !tbaa !25
  %28 = getelementptr inbounds nuw i8, ptr %26, i64 44
  store i32 %1, ptr %28, align 4, !tbaa !29
  %29 = load i32, ptr %17, align 8, !tbaa !84
  %30 = load ptr, ptr %0, align 8, !tbaa !24
  %31 = getelementptr inbounds nuw i8, ptr %30, i64 48
  store i32 %29, ptr %31, align 4, !tbaa !29
  %32 = load i32, ptr %18, align 4, !tbaa !85
  %33 = load ptr, ptr %0, align 8, !tbaa !24
  %34 = getelementptr inbounds nuw i8, ptr %33, i64 52
  store i32 %32, ptr %34, align 4, !tbaa !29
  %35 = load i32, ptr %19, align 8, !tbaa !86
  %36 = load ptr, ptr %0, align 8, !tbaa !24
  %37 = getelementptr inbounds nuw i8, ptr %36, i64 56
  store i32 %35, ptr %37, align 4, !tbaa !29
  %38 = load ptr, ptr %0, align 8, !tbaa !24
  %39 = load ptr, ptr %38, align 8, !tbaa !30
  tail call void %39(ptr noundef nonnull %0) #6
  br label %40

40:                                               ; preds = %25, %22
  ret void
}